target datalayout = "e-m:e-p270:32:32-p271:32:32-p272:64:64-i64:64-i128:128-f80:128-n8:16:32:64-S128"
target triple = "x86_64-pc-linux-gnu"

%"class.grpc_core::SliceBuffer" = type { %struct.grpc_slice_buffer }
%struct.grpc_slice_buffer = type { ptr, ptr, i64, i64, i64, [6 x %struct.grpc_slice] }
%struct.grpc_slice = type { ptr, %"union.grpc_slice::grpc_slice_data" }
%"union.grpc_slice::grpc_slice_data" = type { %"struct.grpc_slice::grpc_slice_data::grpc_slice_refcounted", [8 x i8] }
%"struct.grpc_slice::grpc_slice_data::grpc_slice_refcounted" = type { i64, ptr }
%"class.grpc_core::Slice" = type { %"class.grpc_core::slice_detail::BaseSlice" }
%"class.grpc_core::slice_detail::BaseSlice" = type { %struct.grpc_slice }
%"class.absl::lts_20240722::log_internal::Voidify" = type { i8 }
%"class.absl::lts_20240722::log_internal::LogMessage" = type { %"class.absl::lts_20240722::base_internal::ErrnoSaver", %"class.std::unique_ptr" }
%"class.absl::lts_20240722::base_internal::ErrnoSaver" = type { i32 }
%"class.std::unique_ptr" = type { %"struct.std::__uniq_ptr_data" }
%"struct.std::__uniq_ptr_data" = type { %"class.std::__uniq_ptr_impl" }
%"class.std::__uniq_ptr_impl" = type { %"class.std::tuple" }
%"class.std::tuple" = type { %"struct.std::_Tuple_impl" }
%"struct.std::_Tuple_impl" = type { %"struct.std::_Head_base.128" }
%"struct.std::_Head_base.128" = type { ptr }
%"class.std::basic_string_view" = type { i64, ptr }
%"class.grpc_core::VarintWriter" = type { i64, i64 }
%"class.grpc_core::hpack_encoder_detail::Encoder" = type { i8, i8, ptr, ptr }
%"class.absl::lts_20240722::log_internal::LogMessageFatal" = type { %"class.absl::lts_20240722::log_internal::LogMessage" }

@.str.4 = private unnamed_addr constant [8 x i8] c":status\00", align 1
@.str.11 = private unnamed_addr constant [136 x i8] c"generated/home/dtcxzyw/WorkSpace/Projects/compilers/llvm-opt-benchmark/bench/grpc/grpc/src/core/ext/transport/chttp2/transport/varint.h\00", align 1
@.str.12 = private unnamed_addr constant [20 x i8] c"value <= UINT32_MAX\00", align 1

; Function Attrs: mustprogress nounwind uwtable
define linkonce_odr void @_ZN9grpc_core12slice_detail9BaseSliceC2ERK10grpc_slice(ptr noundef nonnull align 8 dereferenceable(32) %0, ptr noundef nonnull align 8 dereferenceable(32) %1) unnamed_addr #6 comdat align 2 {
  %3 = alloca ptr, align 8
  %4 = alloca ptr, align 8
  store ptr %0, ptr %3, align 8, !tbaa !137
  store ptr %1, ptr %4, align 8, !tbaa !238
  %5 = load ptr, ptr %3, align 8
  %6 = getelementptr inbounds nuw %"class.grpc_core::slice_detail::BaseSlice", ptr %5, i32 0, i32 0
  %7 = load ptr, ptr %4, align 8, !tbaa !238
  call void @llvm.memcpy.p0.p0.i64(ptr align 8 %6, ptr align 8 %7, i64 32, i1 false), !tbaa.struct !180
  ret void
}

; Function Attrs: noinline noreturn nounwind uwtable
define linkonce_odr hidden void @__clang_call_terminate(ptr noundef %0) #15 comdat {
  %2 = call ptr @__cxa_begin_catch(ptr %0) #3
  call void @_ZSt9terminatev() #26
  unreachable
}

; Function Attrs: mustprogress nounwind uwtable
define linkonce_odr noundef i64 @_ZNSt11char_traitsIcE6lengthEPKc(ptr noundef %0) #6 comdat align 2 {
  %2 = alloca ptr, align 8
  store ptr %0, ptr %2, align 8, !tbaa !39
  %3 = load ptr, ptr %2, align 8, !tbaa !39
  %4 = call i64 @strlen(ptr noundef %3) #3
  ret i64 %4
}

; Function Attrs: mustprogress nounwind uwtable
define linkonce_odr void @_ZN9grpc_core5SliceC2ERK10grpc_slice(ptr noundef nonnull align 8 dereferenceable(32) %0, ptr noundef nonnull align 8 dereferenceable(32) %1) unnamed_addr #6 comdat align 2 {
  %3 = alloca ptr, align 8
  %4 = alloca ptr, align 8
  store ptr %0, ptr %3, align 8, !tbaa !134
  store ptr %1, ptr %4, align 8, !tbaa !238
  %5 = load ptr, ptr %3, align 8
  %6 = load ptr, ptr %4, align 8, !tbaa !238
  call void @_ZN9grpc_core12slice_detail9BaseSliceC2ERK10grpc_slice(ptr noundef nonnull align 8 dereferenceable(32) %5, ptr noundef nonnull align 8 dereferenceable(32) %6)
  ret void
}

; Function Attrs: mustprogress nounwind uwtable
define linkonce_odr noundef ptr @_ZN19grpc_slice_refcount12NoopRefcountEv() #6 comdat align 2 {
  ret ptr inttoptr (i64 1 to ptr)
}

; Function Attrs: mustprogress nounwind uwtable
define linkonce_odr void @_ZNKO4absl12lts_2024072212log_internal7VoidifyaaINS1_10LogMessageEEEvRKT_(ptr noundef nonnull align 1 dereferenceable(1) %0, ptr noundef nonnull align 8 dereferenceable(16) %1) #6 comdat align 2 {
  %3 = alloca ptr, align 8
  %4 = alloca ptr, align 8
  store ptr %0, ptr %3, align 8, !tbaa !121
  store ptr %1, ptr %4, align 8, !tbaa !123
  ret void
}

; Function Attrs: mustprogress nounwind uwtable
define linkonce_odr noundef nonnull align 8 dereferenceable(16) ptr @_ZN4absl12lts_2024072212log_internal10LogMessage14InternalStreamEv(ptr noundef nonnull align 8 dereferenceable(16) %0) #6 comdat align 2 {
  %2 = alloca ptr, align 8
  store ptr %0, ptr %2, align 8, !tbaa !123
  %3 = load ptr, ptr %2, align 8
  ret ptr %3
}

; Function Attrs: mustprogress nounwind uwtable
define linkonce_odr void @_ZNSt17basic_string_viewIcSt11char_traitsIcEEC2EPKc(ptr noundef nonnull align 8 dereferenceable(16) %0, ptr noundef nonnull %1) unnamed_addr #6 comdat align 2 personality ptr @__gxx_personality_v0 {
  %3 = alloca ptr, align 8
  %4 = alloca ptr, align 8
  store ptr %0, ptr %3, align 8, !tbaa !174
  store ptr %1, ptr %4, align 8, !tbaa !39
  %5 = load ptr, ptr %3, align 8
  %6 = getelementptr inbounds nuw %"class.std::basic_string_view", ptr %5, i32 0, i32 0
  %7 = load ptr, ptr %4, align 8, !tbaa !39
  %8 = invoke noundef i64 @_ZNSt11char_traitsIcE6lengthEPKc(ptr noundef %7)
          to label %9 unwind label %12

9:                                                ; preds = %2
  store i64 %8, ptr %6, align 8, !tbaa !176
  %10 = getelementptr inbounds nuw %"class.std::basic_string_view", ptr %5, i32 0, i32 1
  %11 = load ptr, ptr %4, align 8, !tbaa !39
  store ptr %11, ptr %10, align 8, !tbaa !188
  ret void

12:                                               ; preds = %2
  %13 = landingpad { ptr, i32 }
          catch ptr null
  %14 = extractvalue { ptr, i32 } %13, 0
  call void @__clang_call_terminate(ptr %14) #26
  unreachable
}

; Function Attrs: mustprogress uwtable
define linkonce_odr void @_ZN9grpc_core12slice_detail18StaticConstructorsINS_5SliceEE16FromStaticBufferEPKvm(ptr dead_on_unwind noalias writable sret(%"class.grpc_core::Slice") align 8 %0, ptr noundef %1, i64 noundef %2) #4 comdat align 2 {
  %4 = alloca ptr, align 8
  %5 = alloca ptr, align 8
  %6 = alloca i64, align 8
  %7 = alloca %struct.grpc_slice, align 8
  store ptr %0, ptr %4, align 8
  store ptr %1, ptr %5, align 8, !tbaa !225
  store i64 %2, ptr %6, align 8, !tbaa !30
  call void @llvm.lifetime.start.p0(i64 32, ptr %7) #3
  %8 = call noundef ptr @_ZN19grpc_slice_refcount12NoopRefcountEv()
  %9 = getelementptr inbounds nuw %struct.grpc_slice, ptr %7, i32 0, i32 0
  store ptr %8, ptr %9, align 8, !tbaa !200
  %10 = load ptr, ptr %5, align 8, !tbaa !225
  %11 = getelementptr inbounds nuw %struct.grpc_slice, ptr %7, i32 0, i32 1
  %12 = getelementptr inbounds nuw %"struct.grpc_slice::grpc_slice_data::grpc_slice_refcounted", ptr %11, i32 0, i32 1
  store ptr %10, ptr %12, align 8, !tbaa !14
  %13 = load i64, ptr %6, align 8, !tbaa !30
  %14 = getelementptr inbounds nuw %struct.grpc_slice, ptr %7, i32 0, i32 1
  %15 = getelementptr inbounds nuw %"struct.grpc_slice::grpc_slice_data::grpc_slice_refcounted", ptr %14, i32 0, i32 0
  store i64 %13, ptr %15, align 8, !tbaa !14
  call void @_ZN9grpc_core5SliceC2ERK10grpc_slice(ptr noundef nonnull align 8 dereferenceable(32) %0, ptr noundef nonnull align 8 dereferenceable(32) %7)
  call void @llvm.lifetime.end.p0(i64 32, ptr %7) #3
  ret void
}

; Function Attrs: mustprogress uwtable
define linkonce_odr void @_ZNK9grpc_core12VarintWriterILh1EE5WriteEhPh(ptr noundef nonnull align 8 dereferenceable(16) %0, i8 noundef zeroext %1, ptr noundef %2) #4 comdat align 2 {
  %4 = alloca ptr, align 8
  %5 = alloca i8, align 1
  %6 = alloca ptr, align 8
  store ptr %0, ptr %4, align 8, !tbaa !129
  store i8 %1, ptr %5, align 1, !tbaa !14
  store ptr %2, ptr %6, align 8, !tbaa !39
  %7 = load ptr, ptr %4, align 8
  %8 = getelementptr inbounds nuw %"class.grpc_core::VarintWriter", ptr %7, i32 0, i32 1
  %9 = load i64, ptr %8, align 8, !tbaa !133
  %10 = icmp eq i64 %9, 1
  br i1 %10, label %11, label %20

11:                                               ; preds = %3
  %12 = load i8, ptr %5, align 1, !tbaa !14
  %13 = zext i8 %12 to i64
  %14 = getelementptr inbounds nuw %"class.grpc_core::VarintWriter", ptr %7, i32 0, i32 0
  %15 = load i64, ptr %14, align 8, !tbaa !131
  %16 = or i64 %13, %15
  %17 = trunc i64 %16 to i8
  %18 = load ptr, ptr %6, align 8, !tbaa !39
  %19 = getelementptr inbounds i8, ptr %18, i64 0
  store i8 %17, ptr %19, align 1, !tbaa !14
  br label %35

20:                                               ; preds = %3
  %21 = load i8, ptr %5, align 1, !tbaa !14
  %22 = zext i8 %21 to i32
  %23 = or i32 %22, 127
  %24 = trunc i32 %23 to i8
  %25 = load ptr, ptr %6, align 8, !tbaa !39
  %26 = getelementptr inbounds i8, ptr %25, i64 0
  store i8 %24, ptr %26, align 1, !tbaa !14
  %27 = getelementptr inbounds nuw %"class.grpc_core::VarintWriter", ptr %7, i32 0, i32 0
  %28 = load i64, ptr %27, align 8, !tbaa !131
  %29 = sub i64 %28, 127
  %30 = load ptr, ptr %6, align 8, !tbaa !39
  %31 = getelementptr inbounds i8, ptr %30, i64 1
  %32 = getelementptr inbounds nuw %"class.grpc_core::VarintWriter", ptr %7, i32 0, i32 1
  %33 = load i64, ptr %32, align 8, !tbaa !133
  %34 = sub i64 %33, 1
  call void @_ZN9grpc_core15VarintWriteTailEmPhm(i64 noundef %29, ptr noundef %31, i64 noundef %34)
  br label %35

35:                                               ; preds = %20, %11
  ret void
}

; Function Attrs: mustprogress uwtable
define linkonce_odr noundef ptr @_ZN9grpc_core11SliceBuffer7AddTinyEm(ptr noundef nonnull align 8 dereferenceable(232) %0, i64 noundef %1) #4 comdat align 2 {
  %3 = alloca ptr, align 8
  %4 = alloca i64, align 8
  store ptr %0, ptr %3, align 8, !tbaa !10
  store i64 %1, ptr %4, align 8, !tbaa !30
  %5 = load ptr, ptr %3, align 8
  %6 = getelementptr inbounds nuw %"class.grpc_core::SliceBuffer", ptr %5, i32 0, i32 0
  %7 = load i64, ptr %4, align 8, !tbaa !30
  %8 = call ptr @grpc_slice_buffer_tiny_add(ptr noundef %6, i64 noundef %7)
  ret ptr %8
}

; Function Attrs: mustprogress nounwind uwtable
define linkonce_odr noundef i64 @_ZNK9grpc_core12VarintWriterILh1EE6lengthEv(ptr noundef nonnull align 8 dereferenceable(16) %0) #6 comdat align 2 {
  %2 = alloca ptr, align 8
  store ptr %0, ptr %2, align 8, !tbaa !129
  %3 = load ptr, ptr %2, align 8
  %4 = getelementptr inbounds nuw %"class.grpc_core::VarintWriter", ptr %3, i32 0, i32 1
  %5 = load i64, ptr %4, align 8, !tbaa !133
  ret i64 %5
}

; Function Attrs: mustprogress uwtable
define linkonce_odr void @_ZN9grpc_core12VarintWriterILh1EEC2Em(ptr noundef nonnull align 8 dereferenceable(16) %0, i64 noundef %1) unnamed_addr #4 comdat align 2 {
  %3 = alloca ptr, align 8
  %4 = alloca i64, align 8
  %5 = alloca %"class.absl::lts_20240722::log_internal::Voidify", align 1
  %6 = alloca %"class.absl::lts_20240722::log_internal::LogMessageFatal", align 8
  %7 = alloca i1, align 1
  %8 = alloca %"class.std::basic_string_view", align 8
  %9 = alloca i1, align 1
  store ptr %0, ptr %3, align 8, !tbaa !129
  store i64 %1, ptr %4, align 8, !tbaa !30
  %10 = load ptr, ptr %3, align 8
  %11 = getelementptr inbounds nuw %"class.grpc_core::VarintWriter", ptr %10, i32 0, i32 0
  %12 = load i64, ptr %4, align 8, !tbaa !30
  store i64 %12, ptr %11, align 8, !tbaa !131
  %13 = getelementptr inbounds nuw %"class.grpc_core::VarintWriter", ptr %10, i32 0, i32 1
  %14 = load i64, ptr %4, align 8, !tbaa !30
  %15 = icmp ult i64 %14, 127
  br i1 %15, label %16, label %17

16:                                               ; preds = %2
  br label %21

17:                                               ; preds = %2
  %18 = load i64, ptr %4, align 8, !tbaa !30
  %19 = sub i64 %18, 127
  %20 = call noundef i64 @_ZN9grpc_core12VarintLengthEm(i64 noundef %19)
  br label %21

21:                                               ; preds = %17, %16
  %22 = phi i64 [ 1, %16 ], [ %20, %17 ]
  store i64 %22, ptr %13, align 8, !tbaa !133
  %23 = load i64, ptr %4, align 8, !tbaa !30
  %24 = icmp ule i64 %23, 4294967295
  %25 = xor i1 %24, true
  %26 = zext i1 %25 to i64
  %27 = call i64 @llvm.expect.i64(i64 %26, i64 0)
  %28 = icmp ne i64 %27, 0
  call void @llvm.lifetime.start.p0(i64 1, ptr %5) #3
  store i1 false, ptr %7, align 1
  store i1 false, ptr %9, align 1
  br i1 %28, label %30, label %29

29:                                               ; preds = %21
  br label %36

30:                                               ; preds = %21
  call void @llvm.lifetime.start.p0(i64 16, ptr %6) #3
  store i1 true, ptr %7, align 1
  call void @_ZNSt17basic_string_viewIcSt11char_traitsIcEEC2EPKc(ptr noundef nonnull align 8 dereferenceable(16) %8, ptr noundef @.str.12) #3
  %31 = getelementptr inbounds nuw { i64, ptr }, ptr %8, i32 0, i32 0
  %32 = load i64, ptr %31, align 8
  %33 = getelementptr inbounds nuw { i64, ptr }, ptr %8, i32 0, i32 1
  %34 = load ptr, ptr %33, align 8
  call void @_ZN4absl12lts_2024072212log_internal15LogMessageFatalC1EPKciSt17basic_string_viewIcSt11char_traitsIcEE(ptr noundef nonnull align 8 dereferenceable(16) %6, ptr noundef @.str.11, i32 noundef 52, i64 %32, ptr %34) #24
  store i1 true, ptr %9, align 1
  %35 = call noundef nonnull align 8 dereferenceable(16) ptr @_ZN4absl12lts_2024072212log_internal10LogMessage14InternalStreamEv(ptr noundef nonnull align 8 dereferenceable(16) %6)
  call void @_ZNKO4absl12lts_2024072212log_internal7VoidifyaaINS1_10LogMessageEEEvRKT_(ptr noundef nonnull align 1 dereferenceable(1) %5, ptr noundef nonnull align 8 dereferenceable(16) %35)
  br label %36

36:                                               ; preds = %30, %29
  %37 = load i1, ptr %9, align 1
  br i1 %37, label %38, label %40

38:                                               ; preds = %36
  call void @_ZN4absl12lts_2024072212log_internal15LogMessageFatalD1Ev(ptr noundef nonnull align 8 dereferenceable(16) %6) #26
  unreachable

39:                                               ; No predecessors!
  br label %40

40:                                               ; preds = %39, %36
  %41 = load i1, ptr %7, align 1
  br i1 %41, label %42, label %43

42:                                               ; preds = %40
  call void @llvm.lifetime.end.p0(i64 16, ptr %6) #3
  br label %43

43:                                               ; preds = %42, %40
  call void @llvm.lifetime.end.p0(i64 1, ptr %5) #3
  ret void
}

; Function Attrs: mustprogress uwtable
define linkonce_odr void @_ZN9grpc_core12slice_detail18StaticConstructorsINS_5SliceEE16FromStaticStringEPKc(ptr dead_on_unwind noalias writable sret(%"class.grpc_core::Slice") align 8 %0, ptr noundef %1) #4 comdat align 2 {
  %3 = alloca ptr, align 8
  %4 = alloca ptr, align 8
  store ptr %0, ptr %3, align 8
  store ptr %1, ptr %4, align 8, !tbaa !39
  %5 = load ptr, ptr %4, align 8, !tbaa !39
  %6 = load ptr, ptr %4, align 8, !tbaa !39
  %7 = call i64 @strlen(ptr noundef %6) #27
  call void @_ZN9grpc_core12slice_detail18StaticConstructorsINS_5SliceEE16FromStaticBufferEPKvm(ptr dead_on_unwind writable sret(%"class.grpc_core::Slice") align 8 %0, ptr noundef %5, i64 noundef %7)
  ret void
}

; Function Attrs: mustprogress uwtable
define void @_ZN9grpc_core20hpack_encoder_detail7Encoder11EmitIndexedEj(ptr noundef nonnull align 8 dereferenceable(24) %0, i32 noundef %1) #4 align 2 {
  %3 = alloca ptr, align 8
  %4 = alloca i32, align 4
  %5 = alloca %"class.grpc_core::VarintWriter", align 8
  store ptr %0, ptr %3, align 8, !tbaa !125
  store i32 %1, ptr %4, align 4, !tbaa !41
  %6 = load ptr, ptr %3, align 8
  call void @llvm.lifetime.start.p0(i64 16, ptr %5) #3
  %7 = load i32, ptr %4, align 4, !tbaa !41
  %8 = zext i32 %7 to i64
  call void @_ZN9grpc_core12VarintWriterILh1EEC2Em(ptr noundef nonnull align 8 dereferenceable(16) %5, i64 noundef %8)
  %9 = getelementptr inbounds nuw %"class.grpc_core::hpack_encoder_detail::Encoder", ptr %6, i32 0, i32 3
  %10 = load ptr, ptr %9, align 8, !tbaa !127
  %11 = call noundef i64 @_ZNK9grpc_core12VarintWriterILh1EE6lengthEv(ptr noundef nonnull align 8 dereferenceable(16) %5)
  %12 = call noundef ptr @_ZN9grpc_core11SliceBuffer7AddTinyEm(ptr noundef nonnull align 8 dereferenceable(232) %10, i64 noundef %11)
  call void @_ZNK9grpc_core12VarintWriterILh1EE5WriteEhPh(ptr noundef nonnull align 8 dereferenceable(16) %5, i8 noundef zeroext -128, ptr noundef %12)
  call void @llvm.lifetime.end.p0(i64 16, ptr %5) #3
  ret void
}

; Function Attrs: mustprogress uwtable
define void @_ZN9grpc_core20hpack_encoder_detail10CompressorINS_18HttpStatusMetadataENS_20HttpStatusCompressorEE10EncodeWithES2_jPNS0_7EncoderE(ptr noundef nonnull align 1 dereferenceable(1) %0, i32 noundef %1, ptr noundef %2) #4 align 2 personality ptr @__gxx_personality_v0 {
  %4 = alloca ptr, align 8
  %5 = alloca i32, align 4
  %6 = alloca ptr, align 8
  %7 = alloca i8, align 1
  %8 = alloca %"class.grpc_core::Slice", align 8
  %9 = alloca %"class.grpc_core::Slice", align 8
  %10 = alloca ptr, align 8
  %11 = alloca i32, align 4
  store ptr %0, ptr %4, align 8, !tbaa !194
  store i32 %1, ptr %5, align 4, !tbaa !41
  store ptr %2, ptr %6, align 8, !tbaa !125
  %12 = load i32, ptr %5, align 4, !tbaa !41
  %13 = icmp eq i32 %12, 200
  br i1 %13, label %14, label %16

14:                                               ; preds = %3
  %15 = load ptr, ptr %6, align 8, !tbaa !125
  call void @_ZN9grpc_core20hpack_encoder_detail7Encoder11EmitIndexedEj(ptr noundef nonnull align 8 dereferenceable(24) %15, i32 noundef 8)
  br label %51

16:                                               ; preds = %3
  call void @llvm.lifetime.start.p0(i64 1, ptr %7) #3
  store i8 0, ptr %7, align 1, !tbaa !14
  %17 = load i32, ptr %5, align 4, !tbaa !41
  switch i32 %17, label %24 [
    i32 204, label %18
    i32 206, label %19
    i32 304, label %20
    i32 400, label %21
    i32 404, label %22
    i32 500, label %23
  ]

18:                                               ; preds = %16
  store i8 9, ptr %7, align 1, !tbaa !14
  br label %24

19:                                               ; preds = %16
  store i8 10, ptr %7, align 1, !tbaa !14
  br label %24

20:                                               ; preds = %16
  store i8 11, ptr %7, align 1, !tbaa !14
  br label %24

21:                                               ; preds = %16
  store i8 12, ptr %7, align 1, !tbaa !14
  br label %24

22:                                               ; preds = %16
  store i8 13, ptr %7, align 1, !tbaa !14
  br label %24

23:                                               ; preds = %16
  store i8 14, ptr %7, align 1, !tbaa !14
  br label %24

24:                                               ; preds = %16, %23, %22, %21, %20, %19, %18
  %25 = load i8, ptr %7, align 1, !tbaa !14
  %26 = zext i8 %25 to i32
  %27 = icmp ne i32 %26, 0
  %28 = zext i1 %27 to i64
  %29 = call i64 @llvm.expect.i64(i64 %28, i64 1)
  %30 = icmp ne i64 %29, 0
  br i1 %30, label %31, label %35

31:                                               ; preds = %24
  %32 = load ptr, ptr %6, align 8, !tbaa !125
  %33 = load i8, ptr %7, align 1, !tbaa !14
  %34 = zext i8 %33 to i32
  call void @_ZN9grpc_core20hpack_encoder_detail7Encoder11EmitIndexedEj(ptr noundef nonnull align 8 dereferenceable(24) %32, i32 noundef %34)
  br label %50

35:                                               ; preds = %24
  %36 = load ptr, ptr %6, align 8, !tbaa !125
  call void @_ZN9grpc_core12slice_detail18StaticConstructorsINS_5SliceEE16FromStaticStringEPKc(ptr dead_on_unwind writable sret(%"class.grpc_core::Slice") align 8 %8, ptr noundef @.str.4)
  %37 = load i32, ptr %5, align 4, !tbaa !41
  %38 = zext i32 %37 to i64
  invoke void @_ZN9grpc_core12slice_detail16CopyConstructorsINS_5SliceEE9FromInt64El(ptr dead_on_unwind writable sret(%"class.grpc_core::Slice") align 8 %9, i64 noundef %38)
          to label %39 unwind label %41

39:                                               ; preds = %35
  invoke void @_ZN9grpc_core20hpack_encoder_detail7Encoder38EmitLitHdrWithNonBinaryStringKeyNotIdxENS_5SliceES2_(ptr noundef nonnull align 8 dereferenceable(24) %36, ptr noundef %8, ptr noundef %9)
          to label %40 unwind label %45

40:                                               ; preds = %39
  call void @_ZN9grpc_core5SliceD2Ev(ptr noundef nonnull align 8 dereferenceable(32) %9) #3
  call void @_ZN9grpc_core5SliceD2Ev(ptr noundef nonnull align 8 dereferenceable(32) %8) #3
  br label %50

41:                                               ; preds = %35
  %42 = landingpad { ptr, i32 }
          cleanup
  %43 = extractvalue { ptr, i32 } %42, 0
  store ptr %43, ptr %10, align 8
  %44 = extractvalue { ptr, i32 } %42, 1
  store i32 %44, ptr %11, align 4
  br label %49

45:                                               ; preds = %39
  %46 = landingpad { ptr, i32 }
          cleanup
  %47 = extractvalue { ptr, i32 } %46, 0
  store ptr %47, ptr %10, align 8
  %48 = extractvalue { ptr, i32 } %46, 1
  store i32 %48, ptr %11, align 4
  call void @_ZN9grpc_core5SliceD2Ev(ptr noundef nonnull align 8 dereferenceable(32) %9) #3
  br label %49

49:                                               ; preds = %45, %41
  call void @_ZN9grpc_core5SliceD2Ev(ptr noundef nonnull align 8 dereferenceable(32) %8) #3
  call void @llvm.lifetime.end.p0(i64 1, ptr %7) #3
  br label %52

50:                                               ; preds = %40, %31
  call void @llvm.lifetime.end.p0(i64 1, ptr %7) #3
  br label %51

51:                                               ; preds = %50, %14
  ret void

52:                                               ; preds = %49
  %53 = load ptr, ptr %10, align 8
  %54 = load i32, ptr %11, align 4
  %55 = insertvalue { ptr, i32 } poison, ptr %53, 0
  %56 = insertvalue { ptr, i32 } %55, i32 %54, 1
  resume { ptr, i32 } %56
}