; Function Attrs: mustprogress uwtable
define void @_ZN9grpc_core20hpack_encoder_detail10CompressorINS_18HttpStatusMetadataENS_20HttpStatusCompressorEE10EncodeWithES2_jPNS0_7EncoderE(ptr noundef nonnull readnone align 1 captures(none) dereferenceable(1) %0, i32 noundef %1, ptr noundef readonly captures(none) %2) local_unnamed_addr #3 align 2 personality ptr @__gxx_personality_v0 {
  %4 = alloca %"class.grpc_core::Slice", align 8
  %5 = alloca %"class.grpc_core::Slice", align 8
  switch i32 %1, label %19 [
    i32 200, label %6
    i32 204, label %15
    i32 206, label %10
    i32 304, label %11
    i32 400, label %12
    i32 404, label %13
    i32 500, label %14
  ]

6:                                                ; preds = %3
  %7 = getelementptr inbounds nuw i8, ptr %2, i64 16
  %8 = load ptr, ptr %7, align 8, !tbaa !103
  %9 = tail call noundef ptr @grpc_slice_buffer_tiny_add(ptr noundef nonnull align 8 dereferenceable(232) %8, i64 noundef 1)
  store i8 -120, ptr %9, align 1, !tbaa !25
  br label %28

10:                                               ; preds = %3
  br label %15

11:                                               ; preds = %3
  br label %15

12:                                               ; preds = %3
  br label %15

13:                                               ; preds = %3
  br label %15

14:                                               ; preds = %3
  br label %15

15:                                               ; preds = %3, %14, %13, %12, %11, %10
  %.010.ph = phi i8 [ -118, %10 ], [ -117, %11 ], [ -116, %12 ], [ -115, %13 ], [ -114, %14 ], [ -119, %3 ]
  %16 = getelementptr inbounds nuw i8, ptr %2, i64 16
  %17 = load ptr, ptr %16, align 8, !tbaa !103
  %18 = tail call noundef ptr @grpc_slice_buffer_tiny_add(ptr noundef nonnull align 8 dereferenceable(232) %17, i64 noundef 1)
  store i8 %.010.ph, ptr %18, align 1, !tbaa !25
  br label %28

19:                                               ; preds = %3
  store ptr inttoptr (i64 1 to ptr), ptr %4, align 8, !tbaa !169, !alias.scope !282
  %.sroa.4.0..sroa_idx.i.i = getelementptr inbounds nuw i8, ptr %4, i64 8
  store i64 7, ptr %.sroa.4.0..sroa_idx.i.i, align 8, !alias.scope !282
  %.sroa.5.0..sroa_idx.i.i = getelementptr inbounds nuw i8, ptr %4, i64 16
  store ptr @.str.4, ptr %.sroa.5.0..sroa_idx.i.i, align 8, !alias.scope !282
  %20 = zext i32 %1 to i64
  invoke void @_ZN9grpc_core12slice_detail16CopyConstructorsINS_5SliceEE9FromInt64El(ptr dead_on_unwind nonnull writable sret(%"class.grpc_core::Slice") align 8 %5, i64 noundef %20)
          to label %21 unwind label %23

21:                                               ; preds = %19
  invoke void @_ZN9grpc_core20hpack_encoder_detail7Encoder38EmitLitHdrWithNonBinaryStringKeyNotIdxENS_5SliceES2_(ptr noundef nonnull align 8 dereferenceable(24) %2, ptr noundef nonnull %4, ptr noundef nonnull %5)
          to label %22 unwind label %25

22:                                               ; preds = %21
  call void @_ZN9grpc_core5SliceD2Ev(ptr noundef nonnull align 8 dereferenceable(32) %5) #27
  call void @_ZN9grpc_core5SliceD2Ev(ptr noundef nonnull align 8 dereferenceable(32) %4) #27
  br label %28

23:                                               ; preds = %19
  %24 = landingpad { ptr, i32 }
          cleanup
  br label %27

25:                                               ; preds = %21
  %26 = landingpad { ptr, i32 }
          cleanup
  call void @_ZN9grpc_core5SliceD2Ev(ptr noundef nonnull align 8 dereferenceable(32) %5) #27
  br label %27

27:                                               ; preds = %25, %23
  %.pn = phi { ptr, i32 } [ %26, %25 ], [ %24, %23 ]
  call void @_ZN9grpc_core5SliceD2Ev(ptr noundef nonnull align 8 dereferenceable(32) %4) #27
  resume { ptr, i32 } %.pn

28:                                               ; preds = %15, %22, %6
  ret void
}